target datalayout = "e-m:e-p270:32:32-p271:32:32-p272:64:64-i64:64-i128:128-f80:128-n8:16:32:64-S128"
target triple = "x86_64-pc-linux-gnu"

%struct.AllocateDesc = type { i32, i32, %union.anon }
%union.anon = type { ptr }

@.str.1 = private unnamed_addr constant [5 x i8] c"fd.c\00", align 1
@allocatedDescs = internal global ptr null, align 8
@numAllocatedDescs = internal global i32 0, align 4
@.str.34 = private unnamed_addr constant [68 x i8] c"file passed to ClosePipeStream was not obtained from OpenPipeStream\00", align 1
@__func__.ClosePipeStream = private unnamed_addr constant [16 x i8] c"ClosePipeStream\00", align 1

; Function Attrs: nounwind uwtable
define dso_local i32 @ClosePipeStream(ptr noundef %0) #0 {
  %2 = alloca i32, align 4
  %3 = alloca ptr, align 8
  %4 = alloca i32, align 4
  %5 = alloca ptr, align 8
  %6 = alloca i32, align 4
  store ptr %0, ptr %3, align 8
  call void @llvm.lifetime.start.p0(i64 4, ptr %4) #14
  %7 = load i32, ptr @numAllocatedDescs, align 4
  store i32 %7, ptr %4, align 4
  br label %8

8:                                                ; preds = %33, %1
  %9 = load i32, ptr %4, align 4
  %10 = add i32 %9, -1
  store i32 %10, ptr %4, align 4
  %11 = icmp sge i32 %10, 0
  br i1 %11, label %12, label %34

12:                                               ; preds = %8
  call void @llvm.lifetime.start.p0(i64 8, ptr %5) #14
  %13 = load ptr, ptr @allocatedDescs, align 8
  %14 = load i32, ptr %4, align 4
  %15 = sext i32 %14 to i64
  %16 = getelementptr inbounds %struct.AllocateDesc, ptr %13, i64 %15
  store ptr %16, ptr %5, align 8
  %17 = load ptr, ptr %5, align 8
  %18 = getelementptr inbounds nuw %struct.AllocateDesc, ptr %17, i32 0, i32 0
  %19 = load i32, ptr %18, align 8
  %20 = icmp eq i32 %19, 1
  br i1 %20, label %21, label %30

21:                                               ; preds = %12
  %22 = load ptr, ptr %5, align 8
  %23 = getelementptr inbounds nuw %struct.AllocateDesc, ptr %22, i32 0, i32 2
  %24 = load ptr, ptr %23, align 8
  %25 = load ptr, ptr %3, align 8
  %26 = icmp eq ptr %24, %25
  br i1 %26, label %27, label %30

27:                                               ; preds = %21
  %28 = load ptr, ptr %5, align 8
  %29 = call i32 @FreeDesc(ptr noundef %28)
  store i32 %29, ptr %2, align 4
  store i32 1, ptr %6, align 4
  br label %31

30:                                               ; preds = %21, %12
  store i32 0, ptr %6, align 4
  br label %31

31:                                               ; preds = %30, %27
  call void @llvm.lifetime.end.p0(i64 8, ptr %5) #14
  %32 = load i32, ptr %6, align 4
  switch i32 %32, label %47 [
    i32 0, label %33
  ]

33:                                               ; preds = %31
  br label %8, !llvm.loop !17

34:                                               ; preds = %8
  br label %35

35:                                               ; preds = %34
  br i1 false, label %36, label %38

36:                                               ; preds = %35
  %37 = call zeroext i1 @errstart_cold(i32 noundef 19, ptr noundef null) #16
  br i1 %37, label %40, label %42

38:                                               ; preds = %35
  %39 = call zeroext i1 @errstart(i32 noundef 19, ptr noundef null)
  br i1 %39, label %40, label %42

40:                                               ; preds = %38, %36
  %41 = call i32 (ptr, ...) @errmsg_internal(ptr noundef @.str.34)
  call void @errfinish(ptr noundef @.str.1, i32 noundef 3029, ptr noundef @__func__.ClosePipeStream)
  br label %42

42:                                               ; preds = %40, %38, %36
  br label %43

43:                                               ; preds = %42
  br label %44

44:                                               ; preds = %43
  %45 = load ptr, ptr %3, align 8
  %46 = call i32 @pclose(ptr noundef %45)
  store i32 %46, ptr %2, align 4
  store i32 1, ptr %6, align 4
  br label %47

47:                                               ; preds = %44, %31
  call void @llvm.lifetime.end.p0(i64 4, ptr %4) #14
  %48 = load i32, ptr %2, align 4
  ret i32 %48
}