; Function Attrs: nounwind uwtable
define dso_local i32 @ClosePipeStream(ptr noundef captures(address) %0) local_unnamed_addr #0 {
  %2 = load i32, ptr @numAllocatedDescs, align 4
  %3 = add i32 %2, -1
  %4 = icmp sgt i32 %3, -1
  br i1 %4, label %.lr.ph, label %._crit_edge

.lr.ph:                                           ; preds = %1
  %5 = load ptr, ptr @allocatedDescs, align 8
  %6 = zext nneg i32 %3 to i64
  br label %7

7:                                                ; preds = %.lr.ph, %16
  %indvars.iv = phi i64 [ %6, %.lr.ph ], [ %indvars.iv.next, %16 ]
  %8 = getelementptr inbounds nuw %struct.AllocateDesc, ptr %5, i64 %indvars.iv
  %9 = load i32, ptr %8, align 8
  %10 = icmp eq i32 %9, 1
  br i1 %10, label %11, label %16

11:                                               ; preds = %7
  %12 = getelementptr inbounds nuw i8, ptr %8, i64 8
  %13 = load ptr, ptr %12, align 8
  %14 = icmp eq ptr %13, %0
  br i1 %14, label %.thread, label %16

.thread:                                          ; preds = %11
  %15 = tail call fastcc i32 @FreeDesc(ptr noundef nonnull %8)
  br label %23

16:                                               ; preds = %7, %11
  %indvars.iv.next = add nsw i64 %indvars.iv, -1
  %17 = icmp sgt i64 %indvars.iv, 0
  br i1 %17, label %7, label %._crit_edge, !llvm.loop !17

._crit_edge:                                      ; preds = %16, %1
  %18 = tail call zeroext i1 @errstart(i32 noundef 19, ptr noundef null) #25
  br i1 %18, label %19, label %21

19:                                               ; preds = %._crit_edge
  %20 = tail call i32 (ptr, ...) @errmsg_internal(ptr noundef nonnull @.str.34) #25
  tail call void @errfinish(ptr noundef nonnull @.str.1, i32 noundef 3029, ptr noundef nonnull @__func__.ClosePipeStream) #25
  br label %21

21:                                               ; preds = %19, %._crit_edge
  %22 = tail call i32 @pclose(ptr noundef %0)
  br label %23

23:                                               ; preds = %.thread, %21
  %.2 = phi i32 [ %22, %21 ], [ %15, %.thread ]
  ret i32 %.2
}